target datalayout = "e-m:e-p270:32:32-p271:32:32-p272:64:64-i64:64-i128:128-f80:128-n8:16:32:64-S128"
target triple = "x86_64-unknown-linux-gnu"

%"struct.net::ReliableQuicStream::PendingData" = type { %"class.std::__cxx11::basic_string", i64, %class.scoped_refptr }
%"class.std::__cxx11::basic_string" = type { %"struct.std::__cxx11::basic_string<char>::_Alloc_hider", i64, %union.anon }
%"struct.std::__cxx11::basic_string<char>::_Alloc_hider" = type { ptr }
%union.anon = type { i64, [8 x i8] }
%class.scoped_refptr = type { ptr }
%"class.base::subtle::RefCountedBase" = type { i32 }

; Function Attrs: mustprogress nounwind uwtable
define linkonce_odr dso_local void @_ZNK4base6subtle14RefCountedBase6AddRefEv(ptr noundef nonnull align 4 dereferenceable(4) %this) #2 comdat align 2 {
entry:
  %this.addr = alloca ptr, align 8
  store ptr %this, ptr %this.addr, align 8
  %this1 = load ptr, ptr %this.addr, align 8
  %ref_count_ = getelementptr inbounds %"class.base::subtle::RefCountedBase", ptr %this1, i32 0, i32 0
  %0 = load i32, ptr %ref_count_, align 4
  %inc = add nsw i32 %0, 1
  store i32 %inc, ptr %ref_count_, align 4
  ret void
}

; Function Attrs: mustprogress uwtable
define linkonce_odr dso_local void @_ZNK4base10RefCountedIN3net24QuicAckListenerInterfaceEE6AddRefEv(ptr noundef nonnull align 4 dereferenceable(4) %this) #0 comdat align 2 {
entry:
  %this.addr = alloca ptr, align 8
  store ptr %this, ptr %this.addr, align 8
  %this1 = load ptr, ptr %this.addr, align 8
  call void @_ZNK4base6subtle14RefCountedBase6AddRefEv(ptr noundef nonnull align 4 dereferenceable(4) %this1)
  ret void
}

; Function Attrs: mustprogress uwtable
define linkonce_odr dso_local void @_ZN13scoped_refptrIN3net24QuicAckListenerInterfaceEE6AddRefEPS1_(ptr noundef %ptr) #0 comdat align 2 {
entry:
  %ptr.addr = alloca ptr, align 8
  store ptr %ptr, ptr %ptr.addr, align 8
  %0 = load ptr, ptr %ptr.addr, align 8
  %add.ptr = getelementptr inbounds i8, ptr %0, i64 8
  call void @_ZNK4base10RefCountedIN3net24QuicAckListenerInterfaceEE6AddRefEv(ptr noundef nonnull align 4 dereferenceable(4) %add.ptr)
  ret void
}

; Function Attrs: mustprogress uwtable
define linkonce_odr dso_local void @_ZN13scoped_refptrIN3net24QuicAckListenerInterfaceEEC2EPS1_(ptr noundef nonnull align 8 dereferenceable(8) %this, ptr noundef %p) unnamed_addr #0 comdat align 2 {
entry:
  %this.addr = alloca ptr, align 8
  %p.addr = alloca ptr, align 8
  store ptr %this, ptr %this.addr, align 8
  store ptr %p, ptr %p.addr, align 8
  %this1 = load ptr, ptr %this.addr, align 8
  %ptr_ = getelementptr inbounds %class.scoped_refptr, ptr %this1, i32 0, i32 0
  %0 = load ptr, ptr %p.addr, align 8
  store ptr %0, ptr %ptr_, align 8
  %ptr_2 = getelementptr inbounds %class.scoped_refptr, ptr %this1, i32 0, i32 0
  %1 = load ptr, ptr %ptr_2, align 8
  %tobool = icmp ne ptr %1, null
  br i1 %tobool, label %if.then, label %if.end

if.then:                                          ; preds = %entry
  %ptr_3 = getelementptr inbounds %class.scoped_refptr, ptr %this1, i32 0, i32 0
  %2 = load ptr, ptr %ptr_3, align 8
  call void @_ZN13scoped_refptrIN3net24QuicAckListenerInterfaceEE6AddRefEPS1_(ptr noundef %2)
  br label %if.end

if.end:                                           ; preds = %if.then, %entry
  ret void
}

; Function Attrs: mustprogress uwtable
define dso_local void @_ZN3net18ReliableQuicStream11PendingDataC2ENSt7__cxx1112basic_stringIcSt11char_traitsIcESaIcEEEPNS_24QuicAckListenerInterfaceE(ptr noundef nonnull align 8 dereferenceable(48) %this, ptr noundef %data_in, ptr noundef %ack_listener_in) unnamed_addr #0 align 2 personality ptr @__gxx_personality_v0 {
entry:
  %this.addr = alloca ptr, align 8
  %data_in.indirect_addr = alloca ptr, align 8
  %ack_listener_in.addr = alloca ptr, align 8
  %exn.slot = alloca ptr, align 8
  %ehselector.slot = alloca i32, align 4
  store ptr %this, ptr %this.addr, align 8
  store ptr %data_in, ptr %data_in.indirect_addr, align 8
  store ptr %ack_listener_in, ptr %ack_listener_in.addr, align 8
  %this1 = load ptr, ptr %this.addr, align 8
  %data = getelementptr inbounds %"struct.net::ReliableQuicStream::PendingData", ptr %this1, i32 0, i32 0
  call void @_ZNSt7__cxx1112basic_stringIcSt11char_traitsIcESaIcEEC1EOS4_(ptr noundef nonnull align 8 dereferenceable(32) %data, ptr noundef nonnull align 8 dereferenceable(32) %data_in) #10
  %offset = getelementptr inbounds %"struct.net::ReliableQuicStream::PendingData", ptr %this1, i32 0, i32 1
  store i64 0, ptr %offset, align 8
  %ack_listener = getelementptr inbounds %"struct.net::ReliableQuicStream::PendingData", ptr %this1, i32 0, i32 2
  %0 = load ptr, ptr %ack_listener_in.addr, align 8
  invoke void @_ZN13scoped_refptrIN3net24QuicAckListenerInterfaceEEC2EPS1_(ptr noundef nonnull align 8 dereferenceable(8) %ack_listener, ptr noundef %0)
          to label %invoke.cont unwind label %lpad

invoke.cont:                                      ; preds = %entry
  ret void

lpad:                                             ; preds = %entry
  %1 = landingpad { ptr, i32 }
          cleanup
  %2 = extractvalue { ptr, i32 } %1, 0
  store ptr %2, ptr %exn.slot, align 8
  %3 = extractvalue { ptr, i32 } %1, 1
  store i32 %3, ptr %ehselector.slot, align 4
  call void @_ZNSt7__cxx1112basic_stringIcSt11char_traitsIcESaIcEED1Ev(ptr noundef nonnull align 8 dereferenceable(32) %data) #10
  br label %eh.resume

eh.resume:                                        ; preds = %lpad
  %exn = load ptr, ptr %exn.slot, align 8
  %sel = load i32, ptr %ehselector.slot, align 4
  %lpad.val = insertvalue { ptr, i32 } poison, ptr %exn, 0
  %lpad.val2 = insertvalue { ptr, i32 } %lpad.val, i32 %sel, 1
  resume { ptr, i32 } %lpad.val2
}