; Function Attrs: mustprogress nounwind uwtable
define dso_local void @_ZN3net18ReliableQuicStream11PendingDataC2ENSt7__cxx1112basic_stringIcSt11char_traitsIcESaIcEEEPNS_24QuicAckListenerInterfaceE(ptr noundef nonnull align 8 dereferenceable(48) %this, ptr noundef nonnull %data_in, ptr noundef %ack_listener_in) unnamed_addr #0 align 2 personality ptr @__gxx_personality_v0 {
entry:
  tail call void @_ZNSt7__cxx1112basic_stringIcSt11char_traitsIcESaIcEEC1EOS4_(ptr noundef nonnull align 8 dereferenceable(32) %this, ptr noundef nonnull align 8 dereferenceable(32) %data_in) #15
  %offset = getelementptr inbounds i8, ptr %this, i64 32
  store i64 0, ptr %offset, align 8
  %ack_listener = getelementptr inbounds i8, ptr %this, i64 40
  store ptr %ack_listener_in, ptr %ack_listener, align 8
  %tobool.not.i = icmp eq ptr %ack_listener_in, null
  br i1 %tobool.not.i, label %invoke.cont, label %if.then.i

if.then.i:                                        ; preds = %entry
  %add.ptr.i.i = getelementptr inbounds i8, ptr %ack_listener_in, i64 8
  %0 = load i32, ptr %add.ptr.i.i, align 4
  %inc.i.i.i.i = add nsw i32 %0, 1
  store i32 %inc.i.i.i.i, ptr %add.ptr.i.i, align 4
  br label %invoke.cont

invoke.cont:                                      ; preds = %if.then.i, %entry
  ret void
}